target datalayout = "e-m:e-p270:32:32-p271:32:32-p272:64:64-i64:64-i128:128-f80:128-n8:16:32:64-S128"
target triple = "x86_64-pc-linux-gnu"

%"class.llvm::SmallVectorBase" = type { ptr, i32, i32 }
%"class.llvm::ResourcePriorityQueue" = type { %"class.llvm::SchedulingPriorityQueue.base", ptr, %"class.std::vector", %"class.std::vector.13", %"class.std::vector", %"class.std::vector", %"struct.llvm::resource_sort", ptr, ptr, ptr, ptr, %"class.std::unique_ptr", %"class.std::vector.13", i32, i32 }
%"class.llvm::SchedulingPriorityQueue.base" = type <{ ptr, i32, i8 }>
%"class.std::vector" = type { %"struct.std::_Vector_base" }
%"struct.std::_Vector_base" = type { %"struct.std::_Vector_base<unsigned int, std::allocator<unsigned int>>::_Vector_impl" }
%"struct.std::_Vector_base<unsigned int, std::allocator<unsigned int>>::_Vector_impl" = type { %"struct.std::_Vector_base<unsigned int, std::allocator<unsigned int>>::_Vector_impl_data" }
%"struct.std::_Vector_base<unsigned int, std::allocator<unsigned int>>::_Vector_impl_data" = type { ptr, ptr, ptr }
%"struct.llvm::resource_sort" = type { ptr }
%"class.std::unique_ptr" = type { %"struct.std::__uniq_ptr_data" }
%"struct.std::__uniq_ptr_data" = type { %"class.std::__uniq_ptr_impl" }
%"class.std::__uniq_ptr_impl" = type { %"class.std::tuple" }
%"class.std::tuple" = type { %"struct.std::_Tuple_impl" }
%"struct.std::_Tuple_impl" = type { %"struct.std::_Head_base.19" }
%"struct.std::_Head_base.19" = type { ptr }
%"class.std::vector.13" = type { %"struct.std::_Vector_base.14" }
%"struct.std::_Vector_base.14" = type { %"struct.std::_Vector_base<llvm::SUnit *, std::allocator<llvm::SUnit *>>::_Vector_impl" }
%"struct.std::_Vector_base<llvm::SUnit *, std::allocator<llvm::SUnit *>>::_Vector_impl" = type { %"struct.std::_Vector_base<llvm::SUnit *, std::allocator<llvm::SUnit *>>::_Vector_impl_data" }
%"struct.std::_Vector_base<llvm::SUnit *, std::allocator<llvm::SUnit *>>::_Vector_impl_data" = type { ptr, ptr, ptr }
%"class.llvm::ilist_node_base" = type { %"class.llvm::ilist_detail::node_base_prevnext" }
%"class.llvm::ilist_detail::node_base_prevnext" = type { ptr, ptr }
%"class.llvm::MVT" = type { i16 }
%"struct.llvm::EVT" = type { %"class.llvm::MVT", ptr }
%"class.llvm::SUnit" = type <{ %union.anon.144, ptr, ptr, ptr, ptr, %"class.llvm::SmallVector.145", %"class.llvm::SmallVector.145", i32, i32, i32, i32, i32, i32, i32, i32, i32, i32, i32, i32, i16, i16, i16, i8, i8 }>
%union.anon.144 = type { ptr }
%"class.llvm::SmallVector.145" = type { %"class.llvm::SmallVectorImpl.146", %"struct.llvm::SmallVectorStorage.149" }
%"class.llvm::SmallVectorImpl.146" = type { %"class.llvm::SmallVectorTemplateBase.147" }
%"class.llvm::SmallVectorTemplateBase.147" = type { %"class.llvm::SmallVectorTemplateCommon.148" }
%"class.llvm::SmallVectorTemplateCommon.148" = type { %"class.llvm::SmallVectorBase" }
%"struct.llvm::SmallVectorStorage.149" = type { [64 x i8] }
%"class.llvm::SDNode" = type { %"class.llvm::FoldingSetBase::Node", %"class.llvm::ilist_node", i32, %"struct.llvm::SDNodeFlags", %union.anon.153, i16, i32, ptr, ptr, ptr, i16, i16, i32, %"class.llvm::DebugLoc", i32, i32 }
%"class.llvm::FoldingSetBase::Node" = type { ptr }
%"class.llvm::ilist_node" = type { %"class.llvm::ilist_node_impl.151" }
%"class.llvm::ilist_node_impl.151" = type { %"class.llvm::ilist_node_base" }
%"struct.llvm::SDNodeFlags" = type { i16 }
%union.anon.153 = type { %"class.llvm::SDNode::LSBaseSDNodeBitfields" }
%"class.llvm::SDNode::LSBaseSDNodeBitfields" = type { i16 }
%"class.llvm::DebugLoc" = type { %"class.llvm::TypedTrackingMDRef" }
%"class.llvm::TypedTrackingMDRef" = type { %"class.llvm::TrackingMDRef" }
%"class.llvm::TrackingMDRef" = type { ptr }
%"class.llvm::SDUse" = type { %"class.llvm::SDValue", ptr, ptr, ptr }
%"class.llvm::SDValue" = type <{ ptr, i32, [4 x i8] }>
%"class.llvm::MCInstrInfo" = type <{ ptr, ptr, ptr, ptr, ptr, i32, [4 x i8] }>
%"class.llvm::MCInstrDesc" = type { i16, i16, i8, i8, i16, i8, i8, i16, i16, i64, i64 }

; Function Attrs: mustprogress nounwind uwtable
define linkonce_odr hidden noundef zeroext i1 @_ZNK4llvm3EVTneES0_(ptr noundef nonnull align 8 dereferenceable(16) %0, i16 %1, ptr %2) #1 comdat align 2 {
  %4 = alloca i1, align 1
  %5 = alloca %"struct.llvm::EVT", align 8
  %6 = alloca ptr, align 8
  %7 = getelementptr inbounds nuw { i16, ptr }, ptr %5, i32 0, i32 0
  store i16 %1, ptr %7, align 8
  %8 = getelementptr inbounds nuw { i16, ptr }, ptr %5, i32 0, i32 1
  store ptr %2, ptr %8, align 8
  store ptr %0, ptr %6, align 8
  %9 = load ptr, ptr %6, align 8
  %10 = getelementptr inbounds nuw %"struct.llvm::EVT", ptr %9, i32 0, i32 0
  %11 = getelementptr inbounds nuw %"class.llvm::MVT", ptr %10, i32 0, i32 0
  %12 = load i16, ptr %11, align 8
  %13 = zext i16 %12 to i32
  %14 = getelementptr inbounds nuw %"struct.llvm::EVT", ptr %5, i32 0, i32 0
  %15 = getelementptr inbounds nuw %"class.llvm::MVT", ptr %14, i32 0, i32 0
  %16 = load i16, ptr %15, align 8
  %17 = zext i16 %16 to i32
  %18 = icmp ne i32 %13, %17
  br i1 %18, label %19, label %20

19:                                               ; preds = %3
  store i1 true, ptr %4, align 1
  br label %33

20:                                               ; preds = %3
  %21 = getelementptr inbounds nuw %"struct.llvm::EVT", ptr %9, i32 0, i32 0
  %22 = getelementptr inbounds nuw %"class.llvm::MVT", ptr %21, i32 0, i32 0
  %23 = load i16, ptr %22, align 8
  %24 = zext i16 %23 to i32
  %25 = icmp eq i32 %24, 0
  br i1 %25, label %26, label %32

26:                                               ; preds = %20
  %27 = getelementptr inbounds nuw %"struct.llvm::EVT", ptr %9, i32 0, i32 1
  %28 = load ptr, ptr %27, align 8
  %29 = getelementptr inbounds nuw %"struct.llvm::EVT", ptr %5, i32 0, i32 1
  %30 = load ptr, ptr %29, align 8
  %31 = icmp ne ptr %28, %30
  store i1 %31, ptr %4, align 1
  br label %33

32:                                               ; preds = %20
  store i1 false, ptr %4, align 1
  br label %33

33:                                               ; preds = %32, %26, %19
  %34 = load i1, ptr %4, align 1
  ret i1 %34
}

; Function Attrs: mustprogress nounwind uwtable
define linkonce_odr hidden void @_ZN4llvm3MVTC2ENS0_15SimpleValueTypeE(ptr noundef nonnull align 2 dereferenceable(2) %0, i16 noundef zeroext %1) unnamed_addr #1 comdat align 2 {
  %3 = alloca ptr, align 8
  %4 = alloca i16, align 2
  store ptr %0, ptr %3, align 8
  store i16 %1, ptr %4, align 2
  %5 = load ptr, ptr %3, align 8
  %6 = getelementptr inbounds nuw %"class.llvm::MVT", ptr %5, i32 0, i32 0
  %7 = load i16, ptr %4, align 2
  store i16 %7, ptr %6, align 2
  ret void
}

; Function Attrs: mustprogress nounwind uwtable
define linkonce_odr hidden { i16, ptr } @_ZNK4llvm6SDNode12getValueTypeEj(ptr noundef nonnull align 8 dereferenceable(88) %0, i32 noundef %1) #1 comdat align 2 {
  %3 = alloca %"struct.llvm::EVT", align 8
  %4 = alloca ptr, align 8
  %5 = alloca i32, align 4
  store ptr %0, ptr %4, align 8
  store i32 %1, ptr %5, align 4
  %6 = load ptr, ptr %4, align 8
  %7 = getelementptr inbounds nuw %"class.llvm::SDNode", ptr %6, i32 0, i32 8
  %8 = load ptr, ptr %7, align 8
  %9 = load i32, ptr %5, align 4
  %10 = zext i32 %9 to i64
  %11 = getelementptr inbounds %"struct.llvm::EVT", ptr %8, i64 %10
  call void @llvm.memcpy.p0.p0.i64(ptr align 8 %3, ptr align 8 %11, i64 16, i1 false)
  %12 = load { i16, ptr }, ptr %3, align 8
  ret { i16, ptr } %12
}

; Function Attrs: mustprogress nounwind uwtable
define linkonce_odr hidden noundef nonnull align 8 dereferenceable(12) ptr @_ZNK4llvm5SDUsecvRKNS_7SDValueEEv(ptr noundef nonnull align 8 dereferenceable(40) %0) #1 comdat align 2 {
  %2 = alloca ptr, align 8
  store ptr %0, ptr %2, align 8
  %3 = load ptr, ptr %2, align 8
  %4 = getelementptr inbounds nuw %"class.llvm::SDUse", ptr %3, i32 0, i32 0
  ret ptr %4
}

; Function Attrs: mustprogress nounwind uwtable
define linkonce_odr hidden noundef ptr @_ZNK4llvm7SDValue7getNodeEv(ptr noundef nonnull align 8 dereferenceable(12) %0) #1 comdat align 2 {
  %2 = alloca ptr, align 8
  store ptr %0, ptr %2, align 8
  %3 = load ptr, ptr %2, align 8
  %4 = getelementptr inbounds nuw %"class.llvm::SDValue", ptr %3, i32 0, i32 0
  %5 = load ptr, ptr %4, align 8
  ret ptr %5
}

; Function Attrs: mustprogress nounwind uwtable
define linkonce_odr hidden noundef zeroext i1 @_ZNK4llvm3EVTeqES0_(ptr noundef nonnull align 8 dereferenceable(16) %0, i16 %1, ptr %2) #1 comdat align 2 {
  %4 = alloca %"struct.llvm::EVT", align 8
  %5 = alloca ptr, align 8
  %6 = alloca %"struct.llvm::EVT", align 8
  %7 = getelementptr inbounds nuw { i16, ptr }, ptr %4, i32 0, i32 0
  store i16 %1, ptr %7, align 8
  %8 = getelementptr inbounds nuw { i16, ptr }, ptr %4, i32 0, i32 1
  store ptr %2, ptr %8, align 8
  store ptr %0, ptr %5, align 8
  %9 = load ptr, ptr %5, align 8
  call void @llvm.memcpy.p0.p0.i64(ptr align 8 %6, ptr align 8 %4, i64 16, i1 false)
  %10 = getelementptr inbounds nuw { i16, ptr }, ptr %6, i32 0, i32 0
  %11 = load i16, ptr %10, align 8
  %12 = getelementptr inbounds nuw { i16, ptr }, ptr %6, i32 0, i32 1
  %13 = load ptr, ptr %12, align 8
  %14 = call noundef zeroext i1 @_ZNK4llvm3EVTneES0_(ptr noundef nonnull align 8 dereferenceable(16) %9, i16 %11, ptr %13)
  %15 = xor i1 %14, true
  ret i1 %15
}

; Function Attrs: mustprogress nounwind uwtable
define linkonce_odr hidden void @_ZN4llvm3EVTC2ENS_3MVT15SimpleValueTypeE(ptr noundef nonnull align 8 dereferenceable(16) %0, i16 noundef zeroext %1) unnamed_addr #1 comdat align 2 {
  %3 = alloca ptr, align 8
  %4 = alloca i16, align 2
  store ptr %0, ptr %3, align 8
  store i16 %1, ptr %4, align 2
  %5 = load ptr, ptr %3, align 8
  %6 = getelementptr inbounds nuw %"struct.llvm::EVT", ptr %5, i32 0, i32 0
  %7 = load i16, ptr %4, align 2
  call void @_ZN4llvm3MVTC2ENS0_15SimpleValueTypeE(ptr noundef nonnull align 2 dereferenceable(2) %6, i16 noundef zeroext %7)
  %8 = getelementptr inbounds nuw %"struct.llvm::EVT", ptr %5, i32 0, i32 1
  store ptr null, ptr %8, align 8
  ret void
}

; Function Attrs: mustprogress nounwind uwtable
define linkonce_odr hidden { i16, ptr } @_ZNK4llvm7SDValue12getValueTypeEv(ptr noundef nonnull align 8 dereferenceable(12) %0) #1 comdat align 2 {
  %2 = alloca %"struct.llvm::EVT", align 8
  %3 = alloca ptr, align 8
  store ptr %0, ptr %3, align 8
  %4 = load ptr, ptr %3, align 8
  %5 = getelementptr inbounds nuw %"class.llvm::SDValue", ptr %4, i32 0, i32 0
  %6 = load ptr, ptr %5, align 8
  %7 = getelementptr inbounds nuw %"class.llvm::SDValue", ptr %4, i32 0, i32 1
  %8 = load i32, ptr %7, align 8
  %9 = call { i16, ptr } @_ZNK4llvm6SDNode12getValueTypeEj(ptr noundef nonnull align 8 dereferenceable(88) %6, i32 noundef %8)
  %10 = getelementptr inbounds nuw { i16, ptr }, ptr %2, i32 0, i32 0
  %11 = extractvalue { i16, ptr } %9, 0
  store i16 %11, ptr %10, align 8
  %12 = getelementptr inbounds nuw { i16, ptr }, ptr %2, i32 0, i32 1
  %13 = extractvalue { i16, ptr } %9, 1
  store ptr %13, ptr %12, align 8
  %14 = load { i16, ptr }, ptr %2, align 8
  ret { i16, ptr } %14
}

; Function Attrs: mustprogress nounwind uwtable
define linkonce_odr hidden noundef nonnull align 8 dereferenceable(12) ptr @_ZNK4llvm6SDNode10getOperandEj(ptr noundef nonnull align 8 dereferenceable(88) %0, i32 noundef %1) #1 comdat align 2 {
  %3 = alloca ptr, align 8
  %4 = alloca i32, align 4
  store ptr %0, ptr %3, align 8
  store i32 %1, ptr %4, align 4
  %5 = load ptr, ptr %3, align 8
  %6 = getelementptr inbounds nuw %"class.llvm::SDNode", ptr %5, i32 0, i32 7
  %7 = load ptr, ptr %6, align 8
  %8 = load i32, ptr %4, align 4
  %9 = zext i32 %8 to i64
  %10 = getelementptr inbounds %"class.llvm::SDUse", ptr %7, i64 %9
  %11 = call noundef nonnull align 8 dereferenceable(12) ptr @_ZNK4llvm5SDUsecvRKNS_7SDValueEEv(ptr noundef nonnull align 8 dereferenceable(40) %10)
  ret ptr %11
}

; Function Attrs: mustprogress nounwind uwtable
define linkonce_odr hidden noundef i32 @_ZNK4llvm6SDNode14getNumOperandsEv(ptr noundef nonnull align 8 dereferenceable(88) %0) #1 comdat align 2 {
  %2 = alloca ptr, align 8
  store ptr %0, ptr %2, align 8
  %3 = load ptr, ptr %2, align 8
  %4 = getelementptr inbounds nuw %"class.llvm::SDNode", ptr %3, i32 0, i32 10
  %5 = load i16, ptr %4, align 8
  %6 = zext i16 %5 to i32
  ret i32 %6
}

; Function Attrs: mustprogress nounwind uwtable
define linkonce_odr hidden noundef ptr @_ZNK4llvm6SDNode12getGluedNodeEv(ptr noundef nonnull align 8 dereferenceable(88) %0) #1 comdat align 2 {
  %2 = alloca ptr, align 8
  %3 = alloca ptr, align 8
  %4 = alloca %"struct.llvm::EVT", align 8
  %5 = alloca %"struct.llvm::EVT", align 8
  store ptr %0, ptr %3, align 8
  %6 = load ptr, ptr %3, align 8
  %7 = call noundef i32 @_ZNK4llvm6SDNode14getNumOperandsEv(ptr noundef nonnull align 8 dereferenceable(88) %6)
  %8 = icmp ne i32 %7, 0
  br i1 %8, label %9, label %23

9:                                                ; preds = %1
  %10 = call noundef i32 @_ZNK4llvm6SDNode14getNumOperandsEv(ptr noundef nonnull align 8 dereferenceable(88) %6)
  %11 = sub i32 %10, 1
  %12 = call noundef nonnull align 8 dereferenceable(12) ptr @_ZNK4llvm6SDNode10getOperandEj(ptr noundef nonnull align 8 dereferenceable(88) %6, i32 noundef %11)
  %13 = call { i16, ptr } @_ZNK4llvm7SDValue12getValueTypeEv(ptr noundef nonnull align 8 dereferenceable(12) %12)
  %14 = getelementptr inbounds nuw { i16, ptr }, ptr %4, i32 0, i32 0
  %15 = extractvalue { i16, ptr } %13, 0
  store i16 %15, ptr %14, align 8
  %16 = getelementptr inbounds nuw { i16, ptr }, ptr %4, i32 0, i32 1
  %17 = extractvalue { i16, ptr } %13, 1
  store ptr %17, ptr %16, align 8
  call void @_ZN4llvm3EVTC2ENS_3MVT15SimpleValueTypeE(ptr noundef nonnull align 8 dereferenceable(16) %5, i16 noundef zeroext 223)
  %18 = getelementptr inbounds nuw { i16, ptr }, ptr %5, i32 0, i32 0
  %19 = load i16, ptr %18, align 8
  %20 = getelementptr inbounds nuw { i16, ptr }, ptr %5, i32 0, i32 1
  %21 = load ptr, ptr %20, align 8
  %22 = call noundef zeroext i1 @_ZNK4llvm3EVTeqES0_(ptr noundef nonnull align 8 dereferenceable(16) %4, i16 %19, ptr %21)
  br label %23

23:                                               ; preds = %9, %1
  %24 = phi i1 [ false, %1 ], [ %22, %9 ]
  br i1 %24, label %25, label %30

25:                                               ; preds = %23
  %26 = call noundef i32 @_ZNK4llvm6SDNode14getNumOperandsEv(ptr noundef nonnull align 8 dereferenceable(88) %6)
  %27 = sub i32 %26, 1
  %28 = call noundef nonnull align 8 dereferenceable(12) ptr @_ZNK4llvm6SDNode10getOperandEj(ptr noundef nonnull align 8 dereferenceable(88) %6, i32 noundef %27)
  %29 = call noundef ptr @_ZNK4llvm7SDValue7getNodeEv(ptr noundef nonnull align 8 dereferenceable(12) %28)
  store ptr %29, ptr %2, align 8
  br label %31

30:                                               ; preds = %23
  store ptr null, ptr %2, align 8
  br label %31

31:                                               ; preds = %30, %25
  %32 = load ptr, ptr %2, align 8
  ret ptr %32
}

; Function Attrs: mustprogress nounwind uwtable
define linkonce_odr hidden noundef i32 @_ZNK4llvm6SDNode9getOpcodeEv(ptr noundef nonnull align 8 dereferenceable(88) %0) #1 comdat align 2 {
  %2 = alloca ptr, align 8
  store ptr %0, ptr %2, align 8
  %3 = load ptr, ptr %2, align 8
  %4 = getelementptr inbounds nuw %"class.llvm::SDNode", ptr %3, i32 0, i32 2
  %5 = load i32, ptr %4, align 8
  ret i32 %5
}

; Function Attrs: mustprogress nounwind uwtable
define linkonce_odr noundef nonnull align 4 dereferenceable(4) ptr @_ZSt3minIjERKT_S2_S2_(ptr noundef nonnull align 4 dereferenceable(4) %0, ptr noundef nonnull align 4 dereferenceable(4) %1) #1 comdat {
  %3 = alloca ptr, align 8
  %4 = alloca ptr, align 8
  %5 = alloca ptr, align 8
  store ptr %0, ptr %4, align 8
  store ptr %1, ptr %5, align 8
  %6 = load ptr, ptr %5, align 8
  %7 = load i32, ptr %6, align 4
  %8 = load ptr, ptr %4, align 8
  %9 = load i32, ptr %8, align 4
  %10 = icmp ult i32 %7, %9
  br i1 %10, label %11, label %13

11:                                               ; preds = %2
  %12 = load ptr, ptr %5, align 8
  store ptr %12, ptr %3, align 8
  br label %15

13:                                               ; preds = %2
  %14 = load ptr, ptr %4, align 8
  store ptr %14, ptr %3, align 8
  br label %15

15:                                               ; preds = %13, %11
  %16 = load ptr, ptr %3, align 8
  ret ptr %16
}

; Function Attrs: mustprogress nounwind uwtable
define linkonce_odr hidden noundef i32 @_ZNK4llvm11MCInstrDesc10getNumDefsEv(ptr noundef nonnull align 8 dereferenceable(32) %0) #1 comdat align 2 {
  %2 = alloca ptr, align 8
  store ptr %0, ptr %2, align 8
  %3 = load ptr, ptr %2, align 8
  %4 = getelementptr inbounds nuw %"class.llvm::MCInstrDesc", ptr %3, i32 0, i32 2
  %5 = load i8, ptr %4, align 4
  %6 = zext i8 %5 to i32
  ret i32 %6
}

; Function Attrs: mustprogress nounwind uwtable
define linkonce_odr hidden noundef i32 @_ZNK4llvm6SDNode12getNumValuesEv(ptr noundef nonnull align 8 dereferenceable(88) %0) #1 comdat align 2 {
  %2 = alloca ptr, align 8
  store ptr %0, ptr %2, align 8
  %3 = load ptr, ptr %2, align 8
  %4 = getelementptr inbounds nuw %"class.llvm::SDNode", ptr %3, i32 0, i32 11
  %5 = load i16, ptr %4, align 2
  %6 = zext i16 %5 to i32
  ret i32 %6
}

; Function Attrs: mustprogress nounwind uwtable
define linkonce_odr hidden noundef nonnull align 8 dereferenceable(32) ptr @_ZNK4llvm11MCInstrInfo3getEj(ptr noundef nonnull align 8 dereferenceable(44) %0, i32 noundef %1) #1 comdat align 2 {
  %3 = alloca ptr, align 8
  %4 = alloca i32, align 4
  store ptr %0, ptr %3, align 8
  store i32 %1, ptr %4, align 4
  %5 = load ptr, ptr %3, align 8
  %6 = getelementptr inbounds nuw %"class.llvm::MCInstrInfo", ptr %5, i32 0, i32 0
  %7 = load ptr, ptr %6, align 8
  %8 = load i32, ptr %4, align 4
  %9 = zext i32 %8 to i64
  %10 = sub i64 0, %9
  %11 = getelementptr inbounds %"class.llvm::MCInstrDesc", ptr %7, i64 %10
  ret ptr %11
}

; Function Attrs: mustprogress nounwind uwtable
define linkonce_odr hidden noundef i32 @_ZNK4llvm6SDNode16getMachineOpcodeEv(ptr noundef nonnull align 8 dereferenceable(88) %0) #1 comdat align 2 {
  %2 = alloca ptr, align 8
  store ptr %0, ptr %2, align 8
  %3 = load ptr, ptr %2, align 8
  %4 = getelementptr inbounds nuw %"class.llvm::SDNode", ptr %3, i32 0, i32 2
  %5 = load i32, ptr %4, align 8
  %6 = xor i32 %5, -1
  ret i32 %6
}

; Function Attrs: mustprogress nounwind uwtable
define linkonce_odr hidden noundef zeroext i1 @_ZNK4llvm6SDNode15isMachineOpcodeEv(ptr noundef nonnull align 8 dereferenceable(88) %0) #1 comdat align 2 {
  %2 = alloca ptr, align 8
  store ptr %0, ptr %2, align 8
  %3 = load ptr, ptr %2, align 8
  %4 = getelementptr inbounds nuw %"class.llvm::SDNode", ptr %3, i32 0, i32 2
  %5 = load i32, ptr %4, align 8
  %6 = icmp slt i32 %5, 0
  ret i1 %6
}

; Function Attrs: mustprogress nounwind uwtable
define linkonce_odr hidden noundef ptr @_ZNK4llvm5SUnit7getNodeEv(ptr noundef nonnull align 8 dereferenceable(255) %0) #1 comdat align 2 {
  %2 = alloca ptr, align 8
  store ptr %0, ptr %2, align 8
  %3 = load ptr, ptr %2, align 8
  %4 = getelementptr inbounds nuw %"class.llvm::SUnit", ptr %3, i32 0, i32 0
  %5 = load ptr, ptr %4, align 8
  ret ptr %5
}

; Function Attrs: mustprogress nounwind uwtable
define dso_local void @_ZN4llvm21ResourcePriorityQueue18initNumRegDefsLeftEPNS_5SUnitE(ptr noundef nonnull align 8 dereferenceable(200) %0, ptr noundef %1) #1 align 2 {
  %3 = alloca ptr, align 8
  %4 = alloca ptr, align 8
  %5 = alloca i32, align 4
  %6 = alloca ptr, align 8
  %7 = alloca ptr, align 8
  %8 = alloca i32, align 4
  %9 = alloca i32, align 4
  store ptr %0, ptr %3, align 8
  store ptr %1, ptr %4, align 8
  %10 = load ptr, ptr %3, align 8
  store i32 0, ptr %5, align 4
  %11 = load ptr, ptr %4, align 8
  %12 = call noundef ptr @_ZNK4llvm5SUnit7getNodeEv(ptr noundef nonnull align 8 dereferenceable(255) %11)
  store ptr %12, ptr %6, align 8
  br label %13

13:                                               ; preds = %49, %2
  %14 = load ptr, ptr %6, align 8
  %15 = icmp ne ptr %14, null
  br i1 %15, label %16, label %52

16:                                               ; preds = %13
  %17 = load ptr, ptr %6, align 8
  %18 = call noundef zeroext i1 @_ZNK4llvm6SDNode15isMachineOpcodeEv(ptr noundef nonnull align 8 dereferenceable(88) %17)
  br i1 %18, label %19, label %37

19:                                               ; preds = %16
  %20 = getelementptr inbounds nuw %"class.llvm::ResourcePriorityQueue", ptr %10, i32 0, i32 9
  %21 = load ptr, ptr %20, align 8
  %22 = getelementptr inbounds i8, ptr %21, i64 8
  %23 = load ptr, ptr %6, align 8
  %24 = call noundef i32 @_ZNK4llvm6SDNode16getMachineOpcodeEv(ptr noundef nonnull align 8 dereferenceable(88) %23)
  %25 = call noundef nonnull align 8 dereferenceable(32) ptr @_ZNK4llvm11MCInstrInfo3getEj(ptr noundef nonnull align 8 dereferenceable(44) %22, i32 noundef %24)
  store ptr %25, ptr %7, align 8
  %26 = load ptr, ptr %6, align 8
  %27 = call noundef i32 @_ZNK4llvm6SDNode16getMachineOpcodeEv(ptr noundef nonnull align 8 dereferenceable(88) %26)
  %28 = icmp eq i32 %27, 10
  br i1 %28, label %29, label %30

29:                                               ; preds = %19
  store i32 0, ptr %5, align 4
  br label %52

30:                                               ; preds = %19
  %31 = load ptr, ptr %6, align 8
  %32 = call noundef i32 @_ZNK4llvm6SDNode12getNumValuesEv(ptr noundef nonnull align 8 dereferenceable(88) %31)
  store i32 %32, ptr %8, align 4
  %33 = load ptr, ptr %7, align 8
  %34 = call noundef i32 @_ZNK4llvm11MCInstrDesc10getNumDefsEv(ptr noundef nonnull align 8 dereferenceable(32) %33)
  store i32 %34, ptr %9, align 4
  %35 = call noundef nonnull align 4 dereferenceable(4) ptr @_ZSt3minIjERKT_S2_S2_(ptr noundef nonnull align 4 dereferenceable(4) %8, ptr noundef nonnull align 4 dereferenceable(4) %9)
  %36 = load i32, ptr %35, align 4
  store i32 %36, ptr %5, align 4
  br label %48

37:                                               ; preds = %16
  %38 = load ptr, ptr %6, align 8
  %39 = call noundef i32 @_ZNK4llvm6SDNode9getOpcodeEv(ptr noundef nonnull align 8 dereferenceable(88) %38)
  switch i32 %39, label %40 [
    i32 50, label %41
    i32 303, label %44
    i32 304, label %44
  ]

40:                                               ; preds = %37
  br label %47

41:                                               ; preds = %37
  %42 = load i32, ptr %5, align 4
  %43 = add i32 %42, 1
  store i32 %43, ptr %5, align 4
  br label %47

44:                                               ; preds = %37, %37
  %45 = load i32, ptr %5, align 4
  %46 = add i32 %45, 1
  store i32 %46, ptr %5, align 4
  br label %47

47:                                               ; preds = %44, %41, %40
  br label %48

48:                                               ; preds = %47, %30
  br label %49

49:                                               ; preds = %48
  %50 = load ptr, ptr %6, align 8
  %51 = call noundef ptr @_ZNK4llvm6SDNode12getGluedNodeEv(ptr noundef nonnull align 8 dereferenceable(88) %50)
  store ptr %51, ptr %6, align 8
  br label %13, !llvm.loop !7

52:                                               ; preds = %29, %13
  %53 = load i32, ptr %5, align 4
  %54 = trunc i32 %53 to i16
  %55 = load ptr, ptr %4, align 8
  %56 = getelementptr inbounds nuw %"class.llvm::SUnit", ptr %55, i32 0, i32 20
  store i16 %54, ptr %56, align 2
  ret void
}