; Function Attrs: mustprogress nofree norecurse nosync nounwind memory(read, argmem: readwrite, inaccessiblemem: none) uwtable
define dso_local void @_ZN4llvm21ResourcePriorityQueue18initNumRegDefsLeftEPNS_5SUnitE(ptr noundef nonnull readonly align 8 captures(none) dereferenceable(200) %0, ptr noundef captures(none) %1) local_unnamed_addr #2 align 2 {
  %3 = load ptr, ptr %1, align 8
  %.not17 = icmp eq ptr %3, null
  br i1 %.not17, label %._crit_edge, label %.lr.ph

.lr.ph:                                           ; preds = %2
  %4 = getelementptr inbounds nuw i8, ptr %0, i64 144
  %5 = load ptr, ptr %4, align 8
  %6 = getelementptr inbounds nuw i8, ptr %5, i64 8
  br label %_ZNK4llvm6SDNode12getGluedNodeEv.exit

_ZNK4llvm6SDNode12getGluedNodeEv.exit:            ; preds = %31, %.lr.ph
  %.019 = phi i32 [ 0, %.lr.ph ], [ %.2, %31 ]
  %.01318 = phi ptr [ %3, %.lr.ph ], [ %38, %31 ]
  %7 = getelementptr inbounds nuw i8, ptr %.01318, i64 24
  %8 = load i32, ptr %7, align 8
  %9 = icmp slt i32 %8, 0
  br i1 %9, label %10, label %23

10:                                               ; preds = %_ZNK4llvm6SDNode12getGluedNodeEv.exit
  %11 = icmp eq i32 %8, -11
  br i1 %11, label %._crit_edge.loopexit, label %12

12:                                               ; preds = %10
  %13 = xor i32 %8, -1
  %14 = load ptr, ptr %6, align 8
  %15 = zext nneg i32 %13 to i64
  %16 = sub nsw i64 0, %15
  %17 = getelementptr inbounds nuw i8, ptr %.01318, i64 66
  %18 = load i16, ptr %17, align 2
  %19 = zext i16 %18 to i32
  %20 = getelementptr inbounds %"class.llvm::MCInstrDesc", ptr %14, i64 %16, i32 2
  %21 = load i8, ptr %20, align 4
  %22 = zext i8 %21 to i32
  %.sroa.speculated = tail call i32 @llvm.umin.i32(i32 %22, i32 %19)
  br label %28

23:                                               ; preds = %_ZNK4llvm6SDNode12getGluedNodeEv.exit
  switch i32 %8, label %28 [
    i32 50, label %24
    i32 303, label %26
    i32 304, label %26
  ]

24:                                               ; preds = %23
  %25 = add i32 %.019, 1
  br label %28

26:                                               ; preds = %23, %23
  %27 = add i32 %.019, 1
  br label %28

28:                                               ; preds = %12, %23, %26, %24
  %.2 = phi i32 [ %.sroa.speculated, %12 ], [ %.019, %23 ], [ %27, %26 ], [ %25, %24 ]
  %29 = getelementptr inbounds nuw i8, ptr %.01318, i64 64
  %30 = load i16, ptr %29, align 8
  %.not.i = icmp eq i16 %30, 0
  br i1 %.not.i, label %._crit_edge.loopexit, label %31

31:                                               ; preds = %28
  %32 = zext i16 %30 to i64
  %33 = add nuw nsw i64 %32, 4294967295
  %34 = getelementptr inbounds nuw i8, ptr %.01318, i64 40
  %35 = load ptr, ptr %34, align 8
  %36 = and i64 %33, 4294967295
  %37 = getelementptr inbounds nuw %"class.llvm::SDUse", ptr %35, i64 %36
  %38 = load ptr, ptr %37, align 8
  %39 = getelementptr inbounds nuw i8, ptr %37, i64 8
  %40 = load i32, ptr %39, align 8
  %41 = getelementptr inbounds nuw i8, ptr %38, i64 48
  %42 = load ptr, ptr %41, align 8
  %43 = zext i32 %40 to i64
  %44 = getelementptr inbounds nuw %"struct.llvm::EVT", ptr %42, i64 %43
  %.sroa.0.0.copyload.i.i.i = load i16, ptr %44, align 8
  %.not.i.i.i = icmp eq i16 %.sroa.0.0.copyload.i.i.i, 223
  br i1 %.not.i.i.i, label %_ZNK4llvm6SDNode12getGluedNodeEv.exit, label %._crit_edge.loopexit, !llvm.loop !7

._crit_edge.loopexit:                             ; preds = %31, %28, %10
  %.1.ph = phi i32 [ 0, %10 ], [ %.2, %28 ], [ %.2, %31 ]
  %45 = trunc i32 %.1.ph to i16
  br label %._crit_edge

._crit_edge:                                      ; preds = %._crit_edge.loopexit, %2
  %.1 = phi i16 [ 0, %2 ], [ %45, %._crit_edge.loopexit ]
  %46 = getelementptr inbounds nuw i8, ptr %1, i64 250
  store i16 %.1, ptr %46, align 2
  ret void
}